ccopy_reg
_reconstructor
p1
(c__main__
SaveState
p2
c__builtin__
object
p3
NtRp4
(dp5
S'circuits'
p6
(lp7
g1
(cui_circuit
SaveCircuit
p8
g3
NtRp9
(dp10
S'inputs'
p11
(lp12
sS'name'
p13
csip
_unpickle_type
p14
(S'PyQt4.QtCore'
p15
S'QString'
(Vscan
p16
ttRp17
sS'parameters'
p18
(dp19
S'Pushed'
p20
I01
sS'Name'
p21
g17
sS'BlankLines'
p22
I01
ssS'outputs'
p23
(lp24
g1
(cui_IO
SaveIO
p25
g3
NtRp26
(dp27
S'loaded_item'
p28
NsS'io_type'
p29
S'out'
p30
sg13
S'x'
sbag1
(g25
g3
NtRp31
(dp32
g28
Nsg29
g30
sg13
S'y'
sbag1
(g25
g3
NtRp33
(dp34
g28
Nsg29
g30
sg13
S'z'
sbag1
(g25
g3
NtRp35
(dp36
g28
Nsg29
g30
sg13
S'record'
p37
sbasg28
NsS'circuit_info'
p38
g1
(ccircuit_info
CircuitInfo
p39
g3
NtRp40
(dp41
S'script_format'
p42
S'formats/scanner.format'
p43
sg11
(lp44
sS'group'
p45
S'Scanner'
p46
sS'param_window_style'
p47
ccollections
OrderedDict
p48
((lp49
(lp50
S'Name'
p51
aS'LineEdit'
p52
aa(lp53
S'Recorder'
p54
aS'LineEdit'
p55
aa(lp56
S'Resolution'
p57
aS'LineEdit'
p58
aa(lp59
S'ImageArea'
p60
aS'LineEdit'
p61
aa(lp62
S'BlankLines'
p63
aS'CheckBox'
p64
aa(lp65
S'Pushed'
p66
aS'CheckBox'
p67
aatRp68
sS'circuit_type'
p69
g46
sg23
(lp70
S'x'
aS'y'
aS'z'
ag37
asS'params'
p71
(lp72
sS'default_values'
p73
(lp74
sbsS'y'
F-400
sS'x'
F-400
sbag1
(g8
g3
NtRp75
(dp76
g11
(lp77
g1
(g25
g3
NtRp78
(dp79
g28
Nsg29
S'in'
p80
sg13
S'holderz'
p81
sbag1
(g25
g3
NtRp82
(dp83
g28
Nsg29
g80
sg13
S'fz'
p84
sbag1
(g25
g3
NtRp85
(dp86
g28
Nsg29
g80
sg13
S'exciter'
p87
sbasg13
g14
(g15
S'QString'
(Vcanti
p88
ttRp89
sg18
(dp90
S'f0'
p91
g14
(g15
S'QString'
(V23065
p92
ttRp93
sg21
g89
sS'k'
g14
(g15
S'QString'
(V112.32
p94
ttRp95
sS'StartingZ'
p96
g14
(g15
S'QString'
(V0.387
p97
ttRp98
sS'Q'
g14
(g15
S'QString'
(V42497
p99
ttRp100
sS'Pushed'
p101
I01
ssg23
(lp102
g1
(g25
g3
NtRp103
(dp104
g28
Nsg29
g30
sg13
S'ztip'
p105
sbag1
(g25
g3
NtRp106
(dp107
g28
Nsg29
g30
sg13
S'zabs'
p108
sbag1
(g25
g3
NtRp109
(dp110
g28
Nsg29
g30
sg13
S'vz'
p111
sbasg28
Nsg38
g1
(g39
g3
NtRp112
(dp113
g42
S'formats/simple_canti.format'
p114
sg11
(lp115
g81
ag84
ag87
asg45
S'Cantilever'
p116
sg47
g48
((lp117
(lp118
S'Name'
p119
aS'LineEdit'
p120
aa(lp121
S'StartingZ'
p122
aS'LineEdit'
p123
aa(lp124
S'Q'
aS'LineEdit'
p125
aa(lp126
S'k'
aS'LineEdit'
p127
aa(lp128
S'f0'
p129
aS'LineEdit'
p130
aa(lp131
g66
aS'CheckBox'
p132
aatRp133
sg69
S'SiCanti'
p134
sg23
(lp135
g105
ag108
ag111
asg71
(lp136
sg73
(lp137
sbsS'y'
F-400
sS'x'
F-100
sbag1
(g8
g3
NtRp138
(dp139
g11
(lp140
g1
(g25
g3
NtRp141
(dp142
g28
Nsg29
g80
sg13
S'signal'
p143
sbasg13
g14
(g15
S'QString'
(Vamp
p144
ttRp145
sg18
(dp146
S'Pushed'
p147
I01
sS'Fcut'
p148
g14
(g15
S'QString'
(V500
p149
ttRp150
sg21
g145
ssg23
(lp151
g1
(g25
g3
NtRp152
(dp153
g28
Nsg29
g30
sg13
S'amp'
p154
sbag1
(g25
g3
NtRp155
(dp156
g28
Nsg29
g30
sg13
S'norm'
p157
sbasg28
Nsg38
g1
(g39
g3
NtRp158
(dp159
g42
S'formats/aAMPD.format'
p160
sg11
(lp161
g143
asg45
S'Custom'
p162
sg47
g48
((lp163
(lp164
S'Name'
p165
aS'LineEdit'
p166
aa(lp167
S'Fcut'
p168
aS'LineEdit'
p169
aa(lp170
g66
aS'CheckBox'
p171
aatRp172
sg69
S'aAMPD'
p173
sg23
(lp174
g154
ag157
asg71
(lp175
sg73
(lp176
sbsS'y'
F-400
sS'x'
F100
sbag1
(g8
g3
NtRp177
(dp178
g11
(lp179
g1
(g25
g3
NtRp180
(dp181
g28
Nsg29
g80
sg13
g143
sbag1
(g25
g3
NtRp182
(dp183
g28
Nsg29
g80
sg13
S'min'
p184
sbag1
(g25
g3
NtRp185
(dp186
g28
Nsg29
g80
sg13
S'max'
p187
sbasg13
g14
(g15
S'QString'
(Vagclim
p188
ttRp189
sg18
(dp190
S'Max'
p191
g14
(g15
S'QString'
(V10
p192
ttRp193
sS'Min'
p194
g14
(g15
S'QString'
(V0
ttRp195
sg21
g189
sS'Pushed'
p196
I01
ssg23
(lp197
g1
(g25
g3
NtRp198
(dp199
g28
Nsg29
g30
sg13
g30
sbasg28
Nsg38
g1
(g39
g3
NtRp200
(dp201
g42
S'formats/limiter.format'
p202
sg11
(lp203
g143
ag184
ag187
asg45
S'Signal Processing'
p204
sg47
g48
((lp205
(lp206
S'Name'
p207
aS'LineEdit'
p208
aa(lp209
S'Min'
p210
aS'LineEdit'
p211
aa(lp212
S'Max'
p213
aS'LineEdit'
p214
aa(lp215
g66
aS'CheckBox'
p216
aatRp217
sg69
S'limiter'
p218
sg23
(lp219
g30
asg71
(lp220
sg73
(lp221
sbsS'y'
F-500
sS'x'
F500
sbag1
(g8
g3
NtRp222
(dp223
g11
(lp224
g1
(g25
g3
NtRp225
(dp226
g28
Nsg29
g80
sg13
S'in1'
p227
sbag1
(g25
g3
NtRp228
(dp229
g28
Nsg29
g80
sg13
S'in2'
p230
sbasg13
g14
(g15
S'QString'
(Vpllinv
p231
ttRp232
sg18
(dp233
S'Pushed'
p234
I01
sg21
g232
sS'In2'
p235
g14
(g15
S'QString'
(V-1
p236
ttRp237
ssg23
(lp238
g1
(g25
g3
NtRp239
(dp240
g28
Nsg29
g30
sg13
g30
sbasg28
Nsg38
g1
(g39
g3
NtRp241
(dp242
g42
S'formats/opMul.format'
p243
sg11
(lp244
g227
ag230
asg45
S'Mathematics'
p245
sg47
g48
((lp246
(lp247
S'Name'
p248
aS'LineEdit'
p249
aa(lp250
S'In1'
p251
aS'LineEdit'
p252
aa(lp253
S'In2'
p254
aS'LineEdit'
p255
aa(lp256
g66
aS'CheckBox'
p257
aatRp258
sg69
S'opMul'
p259
sg23
(lp260
g30
asg71
(lp261
sg73
(lp262
sbsS'y'
F-300
sS'x'
F500
sbag1
(g8
g3
NtRp263
(dp264
g11
(lp265
g1
(g25
g3
NtRp266
(dp267
g28
Nsg29
g80
sg13
g227
sbag1
(g25
g3
NtRp268
(dp269
g28
Nsg29
g80
sg13
g230
sbasg13
g14
(g15
S'QString'
(Vexc
p270
ttRp271
sg18
(dp272
S'Pushed'
p273
I01
sg21
g271
ssg23
(lp274
g1
(g25
g3
NtRp275
(dp276
g28
Nsg29
g30
sg13
g30
sbasg28
Nsg38
g241
sS'y'
F-400
sS'x'
F700
sbag1
(g8
g3
NtRp277
(dp278
g11
(lp279
g1
(g25
g3
NtRp280
(dp281
g28
Nsg29
S'in'
p282
sg13
S'signal'
p283
sbag1
(g25
g3
NtRp284
(dp285
g28
Nsg29
g282
sg13
S'set'
p286
sbag1
(g25
g3
NtRp287
(dp288
g28
Nsg29
g282
sg13
S'Ki'
p289
sbag1
(g25
g3
NtRp290
(dp291
g28
Nsg29
g282
sg13
S'Kp'
p292
sbasg13
g14
(g15
S'QString'
(Vagc
p293
ttRp294
sg18
(dp295
S'Pushed'
p296
I01
sS'Ki'
p297
g14
(g15
S'QString'
(V2.1
p298
ttRp299
sS'Set'
p300
g14
(g15
S'QString'
(V0.387
p301
ttRp302
sS'Kp'
p303
g14
(g15
S'QString'
(V0.1
p304
ttRp305
sS'Name'
p306
g294
ssg23
(lp307
g1
(g25
g3
NtRp308
(dp309
g28
Nsg29
S'out'
p310
sg13
g310
sbasg28
Nsg38
g1
(g39
g3
NtRp311
(dp312
g42
S'formats/PI.format'
p313
sg11
(lp314
g283
ag286
ag289
ag292
asg45
S'Signal Control'
p315
sg47
g48
((lp316
(lp317
S'Name'
p318
aS'LineEdit'
p319
aa(lp320
S'Set'
p321
aS'LineEdit'
p322
aa(lp323
g292
aS'LineEdit'
p324
aa(lp325
g289
aS'LineEdit'
p326
aa(lp327
S'Pushed'
p328
aS'CheckBox'
p329
aatRp330
sg69
S'PI'
p331
sg23
(lp332
g310
asg71
(lp333
sg73
(lp334
sbsS'y'
F-500
sS'x'
F300
sbag1
(g8
g3
NtRp335
(dp336
g11
(lp337
g1
(g25
g3
NtRp338
(dp339
g28
Nsg29
S'in'
p340
sg13
S'ref'
p341
sbag1
(g25
g3
NtRp342
(dp343
g28
Nsg29
g340
sg13
S'vco'
p344
sbag1
(g25
g3
NtRp345
(dp346
g28
Nsg29
g340
sg13
S'f0'
p347
sbag1
(g25
g3
NtRp348
(dp349
g28
Nsg29
g340
sg13
S'KI'
p350
sbag1
(g25
g3
NtRp351
(dp352
g28
Nsg29
g340
sg13
S'KP'
p353
sbasg13
g14
(g15
S'QString'
(Vpll
p354
ttRp355
sg18
(dp356
S'f0'
p357
g14
(g15
S'QString'
(V23065
p358
ttRp359
sS'Fcut'
p360
g14
(g15
S'QString'
(V500
p361
ttRp362
sS'Name'
p363
g355
sS'Ki'
p364
g14
(g15
S'QString'
(V3
ttRp365
sS'Pushed'
p366
I01
sS'Kp'
p367
g14
(g15
S'QString'
(V0.5
p368
ttRp369
sS'Gain'
p370
g14
(g15
S'QString'
(V1000
p371
ttRp372
ssg23
(lp373
g1
(g25
g3
NtRp374
(dp375
g28
Nsg29
S'out'
p376
sg13
S'sin'
p377
sbag1
(g25
g3
NtRp378
(dp379
g28
Nsg29
g376
sg13
S'cos'
p380
sbag1
(g25
g3
NtRp381
(dp382
g28
Nsg29
g376
sg13
S'df'
p383
sbag1
(g25
g3
NtRp384
(dp385
g28
Nsg29
g376
sg13
S'dbg'
p386
sbasg28
Nsg38
g1
(g39
g3
NtRp387
(dp388
g42
S'formats/dPFD.format'
p389
sg11
(lp390
g341
ag344
ag347
ag350
ag353
asg45
S'Custom'
p391
sg47
g48
((lp392
(lp393
S'Name'
p394
aS'LineEdit'
p395
aa(lp396
S'Gain'
p397
ag395
aa(lp398
S'Fcut'
p399
ag395
aa(lp400
g347
ag395
aa(lp401
S'Ki'
p402
ag395
aa(lp403
S'Kp'
p404
ag395
aa(lp405
S'Pushed'
p406
aS'CheckBox'
p407
aatRp408
sg69
S'dPFD'
p409
sg23
(lp410
g377
ag380
ag383
ag386
asg71
(lp411
sg73
(lp412
sbsS'y'
F-300
sS'x'
F300
sbag1
(g8
g3
NtRp413
(dp414
g11
(lp415
g1
(g25
g3
NtRp416
(dp417
g28
Nsg29
g340
sg13
S'ztip'
p418
sbasg13
g14
(g15
S'QString'
(VDimer
p419
ttRp420
sg18
(dp421
g363
g420
sS'Tip Offset'
p422
g14
(g15
S'QString'
(V0
ttRp423
sS'A1'
p424
g14
(g15
S'QString'
(V-0.0166279
p425
ttRp426
sS'Pushed'
p427
I01
sS'A3'
p428
g14
(g15
S'QString'
(V-1819.29
p429
ttRp430
sS'A2'
p431
g14
(g15
S'QString'
(V0.22753
p432
ttRp433
sS'A5'
p434
g14
(g15
S'QString'
(V-106878
p435
ttRp436
sS'A4'
p437
g14
(g15
S'QString'
(V27055.6
p438
ttRp439
sS'A6'
p440
g14
(g15
S'QString'
(V31.8093
p441
ttRp442
ssg23
(lp443
g1
(g25
g3
NtRp444
(dp445
g28
Nsg29
g376
sg13
S'fz'
p446
sbasg28
Nsg38
g1
(g39
g3
NtRp447
(dp448
g42
S'formats/VDWtorn.format'
p449
sg11
(lp450
g418
asg45
S'Van Der Walls'
p451
sg47
g48
((lp452
(lp453
g394
ag395
aa(lp454
S'A1'
p455
ag395
aa(lp456
S'A2'
p457
ag395
aa(lp458
S'A3'
p459
ag395
aa(lp460
S'A4'
p461
ag395
aa(lp462
S'A5'
p463
ag395
aa(lp464
S'A6'
p465
ag395
aa(lp466
S'Tip Offset'
p467
ag395
aa(lp468
g406
ag407
aatRp469
sg69
S'VDWtorn'
p470
sg23
(lp471
g446
asg71
(lp472
sg73
(lp473
sbsS'y'
F-500
sS'x'
F-100
sbag1
(g8
g3
NtRp474
(dp475
g11
(lp476
g1
(g25
g3
NtRp477
(dp478
g28
Nsg29
g340
sg13
S'record'
p479
sbasg13
g14
(g15
S'QString'
(Voutput3
p480
ttRp481
sg18
(dp482
S'File'
p483
g14
(g15
S'QString'
(Vtut4.dat
p484
ttRp485
sS'Register'
p486
g1
(cregister_selection_window
RegisterSelectionSaveList
p487
c__builtin__
list
p488
(lp489
g1
(cregister_selection_window
RegisterSelectionSaveItem
p490
g3
NtRp491
(dp492
S'channel'
p493
g14
(g15
S'QString'
(Vz
ttRp494
sS'circuit'
p495
g9
sbag1
(g490
g3
NtRp496
(dp497
g493
g14
(g15
S'QString'
(Vdf
p498
ttRp499
sg495
g335
sbatRp500
sg363
g481
sS'Dump'
p501
g14
(g15
S'QString'
(V0
ttRp502
sS'Pushed'
p503
I01
ssg23
(lp504
sg28
Nsg38
g1
(g39
g3
NtRp505
(dp506
g42
S'formats/output.format'
p507
sg11
(lp508
g479
asg45
S'Output'
p509
sg47
g48
((lp510
(lp511
g394
ag395
aa(lp512
S'File'
p513
ag395
aa(lp514
S'Dump'
p515
ag395
aa(lp516
S'Register'
p517
aS'RegisterDialog'
p518
aa(lp519
g406
ag407
aatRp520
sg69
S'output'
p521
sg23
(lp522
sg71
(lp523
sg73
(lp524
sbsS'y'
F-200
sS'x'
F-200
sbasS'connections'
p525
(lp526
g1
(cui_connection
SaveConnection
p527
g3
NtRp528
(dp529
g521
g33
sg28
NsS'input_'
p530
g78
sbag1
(g527
g3
NtRp531
(dp532
g521
g106
sg28
Nsg530
g416
sbag1
(g527
g3
NtRp533
(dp534
g521
g444
sg28
Nsg530
g82
sbag1
(g527
g3
NtRp535
(dp536
g521
g103
sg28
Nsg530
g141
sbag1
(g527
g3
NtRp537
(dp538
g521
g152
sg28
Nsg530
g280
sbag1
(g527
g3
NtRp539
(dp540
g521
g155
sg28
Nsg530
g338
sbag1
(g527
g3
NtRp541
(dp542
g521
g378
sg28
Nsg530
g342
sbag1
(g527
g3
NtRp543
(dp544
g521
g308
sg28
Nsg530
g180
sbag1
(g527
g3
NtRp545
(dp546
g521
g198
sg28
Nsg530
g266
sbag1
(g527
g3
NtRp547
(dp548
g521
g374
sg28
Nsg530
g225
sbag1
(g527
g3
NtRp549
(dp550
g521
g239
sg28
Nsg530
g268
sbag1
(g527
g3
NtRp551
(dp552
g521
g275
sg28
Nsg530
g85
sbag1
(g527
g3
NtRp553
(dp554
g521
g35
sg28
Nsg530
g477
sbasS'machine_parameters'
p555
(dp556
S'Pushed'
p557
I01
sS'dt'
p558
g14
(g15
S'QString'
(V5e-8
p559
ttRp560
sS'PyVAFM src'
p561
g14
(g15
S'QString'
(V/home/keisano1/Project/pyvafm-master/src
p562
ttRp563
ssS'run_selections'
p564
(lp565
g1
(crun_selection_window
RunSelectionSaveItem
p566
g3
NtRp567
(dp568
S'function'
p569
g14
(g15
S'QString'
(VStop
p570
ttRp571
sg495
g474
sS'edit_text'
p572
g14
(g15
S'QString'
(V
ttRp573
sbag1
(g566
g3
NtRp574
(dp575
g569
g14
(g15
S'QString'
(VPlace
p576
ttRp577
sg495
g9
sg572
g14
(g15
S'QString'
(Vx=0, y=0, z=15
p578
ttRp579
sbag1
(g566
g3
NtRp580
(dp581
g569
g14
(g15
S'QString'
(VMove
p582
ttRp583
sg495
g9
sg572
g14
(g15
S'QString'
(Vx=0, y=0, z=-1
p584
ttRp585
sbag1
(g566
g3
NtRp586
(dp587
g569
g14
(g15
S'QString'
(VWait
p588
ttRp589
sg495
g1
(crun_selection_window
MachineDummy
p590
g3
NtRp591
(dp592
S'save_state'
p593
g591
sg28
g591
sg13
S'machine'
p594
sbsg572
g14
(g15
S'QString'
(V1
ttRp595
sbag1
(g566
g3
NtRp596
(dp597
g569
g14
(g15
S'QString'
(VStart
p598
ttRp599
sg495
g474
sg572
g14
(g15
S'QString'
(V
ttRp600
sbag1
(g566
g3
NtRp601
(dp602
g569
g14
(g15
S'QString'
(VMoveRecord
p603
ttRp604
sg495
g9
sg572
g14
(g15
S'QString'
(Vx=0, y=0, z=-9.5,v=1,points=200
p605
ttRp606
sbasS'circuit_index'
p607
I73
sb.