ccopy_reg
_reconstructor
p1
(c__main__
SaveState
p2
c__builtin__
object
p3
NtRp4
(dp5
S'circuits'
p6
(lp7
g1
(cui_circuit
SaveCircuit
p8
g3
NtRp9
(dp10
S'inputs'
p11
(lp12
g1
(cui_IO
SaveIO
p13
g3
NtRp14
(dp15
S'loaded_item'
p16
NsS'io_type'
p17
S'in'
p18
sS'name'
p19
S'holderz'
p20
sbag1
(g13
g3
NtRp21
(dp22
g16
Nsg17
g18
sg19
S'fz'
p23
sbag1
(g13
g3
NtRp24
(dp25
g16
Nsg17
g18
sg19
S'exciter'
p26
sbasg19
csip
_unpickle_type
p27
(S'PyQt4.QtCore'
p28
S'QString'
(Vcanti
p29
ttRp30
sS'parameters'
p31
(dp32
S'f0'
p33
g27
(g28
S'QString'
(V150000
p34
ttRp35
sS'Name'
p36
g30
sS'k'
g27
(g28
S'QString'
(V167
p37
ttRp38
sS'StartingZ'
p39
g27
(g28
S'QString'
(V0.5
p40
ttRp41
sS'Q'
g27
(g28
S'QString'
(V10000
p42
ttRp43
sS'Pushed'
p44
I01
ssS'outputs'
p45
(lp46
g1
(g13
g3
NtRp47
(dp48
g16
Nsg17
S'out'
p49
sg19
S'ztip'
p50
sbag1
(g13
g3
NtRp51
(dp52
g16
Nsg17
g49
sg19
S'zabs'
p53
sbag1
(g13
g3
NtRp54
(dp55
g16
Nsg17
g49
sg19
S'vz'
p56
sbasg16
NsS'circuit_info'
p57
g1
(ccircuit_info
CircuitInfo
p58
g3
NtRp59
(dp60
S'script_format'
p61
S'formats/simple_canti.format'
p62
sg11
(lp63
g20
ag23
ag26
asS'group'
p64
S'Cantilever'
p65
sS'param_window_style'
p66
ccollections
OrderedDict
p67
((lp68
(lp69
S'Name'
p70
aS'LineEdit'
p71
aa(lp72
S'StartingZ'
p73
aS'LineEdit'
p74
aa(lp75
S'Q'
aS'LineEdit'
p76
aa(lp77
S'k'
aS'LineEdit'
p78
aa(lp79
S'f0'
p80
aS'LineEdit'
p81
aa(lp82
S'Pushed'
p83
aS'CheckBox'
p84
aatRp85
sS'circuit_type'
p86
S'SiCanti'
p87
sg45
(lp88
g50
ag53
ag56
asS'params'
p89
(lp90
sS'default_values'
p91
(lp92
sbsS'y'
F100
sS'x'
F100
sbag1
(g8
g3
NtRp93
(dp94
g11
(lp95
g1
(g13
g3
NtRp96
(dp97
g16
Nsg17
g18
sg19
S'signal'
p98
sbasg19
g27
(g28
S'QString'
(Vamp
p99
ttRp100
sg31
(dp101
S'Pushed'
p102
I01
sS'Fcut'
p103
g27
(g28
S'QString'
(V10000
p104
ttRp105
sg36
g100
ssg45
(lp106
g1
(g13
g3
NtRp107
(dp108
g16
Nsg17
g49
sg19
S'amp'
p109
sbag1
(g13
g3
NtRp110
(dp111
g16
Nsg17
g49
sg19
S'norm'
p112
sbasg16
Nsg57
g1
(g58
g3
NtRp113
(dp114
g61
S'formats/aAMPD.format'
p115
sg11
(lp116
g98
asg64
S'Custom'
p117
sg66
g67
((lp118
(lp119
S'Name'
p120
aS'LineEdit'
p121
aa(lp122
S'Fcut'
p123
aS'LineEdit'
p124
aa(lp125
g83
aS'CheckBox'
p126
aatRp127
sg86
S'aAMPD'
p128
sg45
(lp129
g109
ag112
asg89
(lp130
sg91
(lp131
sbsS'y'
F100
sS'x'
F300
sbag1
(g8
g3
NtRp132
(dp133
g11
(lp134
g1
(g13
g3
NtRp135
(dp136
g16
Nsg17
g18
sg19
g98
sbag1
(g13
g3
NtRp137
(dp138
g16
Nsg17
g18
sg19
S'set'
p139
sbag1
(g13
g3
NtRp140
(dp141
g16
Nsg17
g18
sg19
S'Ki'
p142
sbag1
(g13
g3
NtRp143
(dp144
g16
Nsg17
g18
sg19
S'Kp'
p145
sbasg19
g27
(g28
S'QString'
(Vagc
p146
ttRp147
sg31
(dp148
S'Set'
p149
g27
(g28
S'QString'
(V1
ttRp150
sS'Pushed'
p151
I01
sS'Ki'
p152
g27
(g28
S'QString'
(V800
p153
ttRp154
sS'Kp'
p155
g27
(g28
S'QString'
(V1.1
p156
ttRp157
sg36
g147
ssg45
(lp158
g1
(g13
g3
NtRp159
(dp160
g16
Nsg17
g49
sg19
g49
sbasg16
Nsg57
g1
(g58
g3
NtRp161
(dp162
g61
S'formats/PI.format'
p163
sg11
(lp164
g98
ag139
ag142
ag145
asg64
S'Signal Control'
p165
sg66
g67
((lp166
(lp167
S'Name'
p168
aS'LineEdit'
p169
aa(lp170
S'Set'
p171
aS'LineEdit'
p172
aa(lp173
g145
aS'LineEdit'
p174
aa(lp175
g142
aS'LineEdit'
p176
aa(lp177
g83
aS'CheckBox'
p178
aatRp179
sg86
S'PI'
p180
sg45
(lp181
g49
asg89
(lp182
sg91
(lp183
sbsS'y'
F0
sS'x'
F500
sbag1
(g8
g3
NtRp184
(dp185
g11
(lp186
g1
(g13
g3
NtRp187
(dp188
g16
Nsg17
g18
sg19
g98
sbag1
(g13
g3
NtRp189
(dp190
g16
Nsg17
g18
sg19
S'min'
p191
sbag1
(g13
g3
NtRp192
(dp193
g16
Nsg17
g18
sg19
S'max'
p194
sbasg19
g27
(g28
S'QString'
(Vagclim
p195
ttRp196
sg31
(dp197
S'Max'
p198
g27
(g28
S'QString'
(V10
p199
ttRp200
sS'Min'
p201
g27
(g28
S'QString'
(V0
ttRp202
sg36
g196
sS'Pushed'
p203
I01
ssg45
(lp204
g1
(g13
g3
NtRp205
(dp206
g16
Nsg17
g49
sg19
g49
sbasg16
Nsg57
g1
(g58
g3
NtRp207
(dp208
g61
S'formats/limiter.format'
p209
sg11
(lp210
g98
ag191
ag194
asg64
S'Signal Processing'
p211
sg66
g67
((lp212
(lp213
S'Name'
p214
aS'LineEdit'
p215
aa(lp216
S'Min'
p217
aS'LineEdit'
p218
aa(lp219
S'Max'
p220
aS'LineEdit'
p221
aa(lp222
g83
aS'CheckBox'
p223
aatRp224
sg86
S'limiter'
p225
sg45
(lp226
g49
asg89
(lp227
sg91
(lp228
sbsS'y'
F0
sS'x'
F700
sbag1
(g8
g3
NtRp229
(dp230
g11
(lp231
g1
(g13
g3
NtRp232
(dp233
g16
Nsg17
g18
sg19
S'signal1'
p234
sbag1
(g13
g3
NtRp235
(dp236
g16
Nsg17
g18
sg19
S'signal2'
p237
sbag1
(g13
g3
NtRp238
(dp239
g16
Nsg17
g18
sg19
g80
sbasg19
g27
(g28
S'QString'
(Vpll
p240
ttRp241
sg31
(dp242
S'f0'
p243
g27
(g28
S'QString'
(V150000
p244
ttRp245
sg36
g241
sS'Ki'
p246
g27
(g28
S'QString'
(V700
p247
ttRp248
sS'Pushed'
p249
I01
sS'Kp'
p250
g27
(g28
S'QString'
(V0.5
p251
ttRp252
sS'Gain'
p253
g27
(g28
S'QString'
(V600
p254
ttRp255
sS'Filters'
p256
g27
(g28
S'QString'
(V10000, 5000, 2000
p257
ttRp258
ssg45
(lp259
g1
(g13
g3
NtRp260
(dp261
g16
Nsg17
g49
sg19
S'sin'
p262
sbag1
(g13
g3
NtRp263
(dp264
g16
Nsg17
g49
sg19
S'cos'
p265
sbag1
(g13
g3
NtRp266
(dp267
g16
Nsg17
g49
sg19
S'df'
p268
sbag1
(g13
g3
NtRp269
(dp270
g16
Nsg17
g49
sg19
S'dbg'
p271
sbasg16
Nsg57
g1
(g58
g3
NtRp272
(dp273
g61
S'formats/aPLL.format'
p274
sg11
(lp275
g234
ag237
ag80
asg64
g117
sg66
g67
((lp276
(lp277
S'Name'
p278
aS'LineEdit'
p279
aa(lp280
S'Filters'
p281
aS'LineEdit'
p282
aa(lp283
g145
aS'LineEdit'
p284
aa(lp285
g142
aS'LineEdit'
p286
aa(lp287
S'Gain'
p288
aS'LineEdit'
p289
aa(lp290
g80
aS'LineEdit'
p291
aa(lp292
g83
aS'CheckBox'
p293
aatRp294
sg86
S'aPLL'
p295
sg45
(lp296
g262
ag265
ag268
ag271
asg89
(lp297
sg91
(lp298
sbsS'y'
F200
sS'x'
F500
sbag1
(g8
g3
NtRp299
(dp300
g11
(lp301
g1
(g13
g3
NtRp302
(dp303
g16
Nsg17
g18
sg19
S'in1'
p304
sbag1
(g13
g3
NtRp305
(dp306
g16
Nsg17
g18
sg19
S'in2'
p307
sbasg19
g27
(g28
S'QString'
(Vpllinv
p308
ttRp309
sg31
(dp310
S'Pushed'
p311
I01
sg36
g309
sS'In2'
p312
g27
(g28
S'QString'
(V-1
p313
ttRp314
ssg45
(lp315
g1
(g13
g3
NtRp316
(dp317
g16
Nsg17
g49
sg19
g49
sbasg16
Nsg57
g1
(g58
g3
NtRp318
(dp319
g61
S'formats/opMul.format'
p320
sg11
(lp321
g304
ag307
asg64
S'Mathematics'
p322
sg66
g67
((lp323
(lp324
S'Name'
p325
aS'LineEdit'
p326
aa(lp327
S'In1'
p328
aS'LineEdit'
p329
aa(lp330
S'In2'
p331
aS'LineEdit'
p332
aa(lp333
g83
aS'CheckBox'
p334
aatRp335
sg86
S'opMul'
p336
sg45
(lp337
g49
asg89
(lp338
sg91
(lp339
sbsS'y'
F200
sS'x'
F700
sbag1
(g8
g3
NtRp340
(dp341
g11
(lp342
g1
(g13
g3
NtRp343
(dp344
g16
Nsg17
g18
sg19
g304
sbag1
(g13
g3
NtRp345
(dp346
g16
Nsg17
g18
sg19
g307
sbasg19
g27
(g28
S'QString'
(Vexc
p347
ttRp348
sg31
(dp349
S'Pushed'
p350
I01
sg36
g348
ssg45
(lp351
g1
(g13
g3
NtRp352
(dp353
g16
Nsg17
g49
sg19
g49
sbasg16
Nsg57
g318
sS'y'
F100
sS'x'
F900
sbag1
(g8
g3
NtRp354
(dp355
g11
(lp356
sg19
g27
(g28
S'QString'
(Vscan
p357
ttRp358
sg31
(dp359
g36
g358
sS'Pushed'
p360
I01
sS'Recorder'
p361
g27
(g28
S'QString'
(Vimage
p362
ttRp363
sS'Resolution'
p364
g27
(g28
S'QString'
(V20, 20
p365
ttRp366
sS'ImageArea'
p367
g27
(g28
S'QString'
(V11.28, 11.28
p368
ttRp369
sS'BlankLines'
p370
I01
ssg45
(lp371
g1
(g13
g3
NtRp372
(dp373
g16
Nsg17
g49
sg19
S'x'
sbag1
(g13
g3
NtRp374
(dp375
g16
Nsg17
g49
sg19
S'y'
sbag1
(g13
g3
NtRp376
(dp377
g16
Nsg17
g49
sg19
S'z'
sbag1
(g13
g3
NtRp378
(dp379
g16
Nsg17
g49
sg19
S'record'
p380
sbasg16
Nsg57
g1
(g58
g3
NtRp381
(dp382
g61
S'formats/scanner.format'
p383
sg11
(lp384
sg64
S'Scanner'
p385
sg66
g67
((lp386
(lp387
S'Name'
p388
aS'LineEdit'
p389
aa(lp390
S'Recorder'
p391
aS'LineEdit'
p392
aa(lp393
S'Resolution'
p394
aS'LineEdit'
p395
aa(lp396
S'ImageArea'
p397
aS'LineEdit'
p398
aa(lp399
S'BlankLines'
p400
aS'CheckBox'
p401
aa(lp402
g83
aS'CheckBox'
p403
aatRp404
sg86
g385
sg45
(lp405
S'x'
aS'y'
aS'z'
ag380
asg89
(lp406
sg91
(lp407
sbsS'y'
F0
sS'x'
F-100
sbag1
(g8
g3
NtRp408
(dp409
g11
(lp410
g1
(g13
g3
NtRp411
(dp412
g16
Nsg17
g18
sg19
S'x'
sbag1
(g13
g3
NtRp413
(dp414
g16
Nsg17
g18
sg19
S'y'
sbag1
(g13
g3
NtRp415
(dp416
g16
Nsg17
g18
sg19
S'z'
sbasg19
g27
(g28
S'QString'
(Vinter
p417
ttRp418
sg31
(dp419
g36
g418
sS'Components'
p420
g27
(g28
S'QString'
(V3
ttRp421
sS'Filename'
p422
g27
(g28
S'QString'
(V/home/keisano1/Project/UIPyVAFM/scripts/NaClforces.dat
p423
ttRp424
sS'Pushed'
p425
I01
sS'Steps'
p426
g27
(g28
S'QString'
(V0.705, 0.705, 0.1
p427
ttRp428
sS'PBC'
p429
g27
(g28
S'QString'
(VTrue, True, False
p430
ttRp431
sS'Npoints'
p432
g27
(g28
S'QString'
(V8, 8, 201
p433
ttRp434
sS'Force Multiplier'
p435
g27
(g28
S'QString'
(V1e10
p436
ttRp437
ssg45
(lp438
g1
(g13
g3
NtRp439
(dp440
g16
Nsg17
g49
sg19
S'F1'
p441
sbag1
(g13
g3
NtRp442
(dp443
g16
Nsg17
g49
sg19
S'F2'
p444
sbag1
(g13
g3
NtRp445
(dp446
g16
Nsg17
g49
sg19
S'F3'
p447
sbasg16
Nsg57
g1
(g58
g3
NtRp448
(dp449
g61
S'formats/i3Dlin.format'
p450
sg11
(lp451
S'x'
aS'y'
aS'z'
asg64
S'Interpolation'
p452
sg66
g67
((lp453
(lp454
S'Name'
p455
aS'LineEdit'
p456
aa(lp457
S'Components'
p458
aS'LineEdit'
p459
aa(lp460
S'Steps'
p461
aS'LineEdit'
p462
aa(lp463
S'Npoints'
p464
aS'LineEdit'
p465
aa(lp466
S'PBC'
p467
aS'LineEdit'
p468
aa(lp469
S'Force Multiplier'
p470
aS'LineEdit'
p471
aa(lp472
g83
aS'CheckBox'
p473
aa(lp474
S'Filename'
p475
aS'FileDialog'
p476
aatRp477
sg86
S'i3Dlin'
p478
sg45
(lp479
g441
ag444
ag447
asg89
(lp480
sg91
(lp481
sbsS'y'
F0
sS'x'
F100
sbag1
(g8
g3
NtRp482
(dp483
g11
(lp484
g1
(g13
g3
NtRp485
(dp486
g16
Nsg17
g18
sg19
g380
sbasg19
g27
(g28
S'QString'
(Vimage
p487
ttRp488
sg31
(dp489
S'File'
p490
g27
(g28
S'QString'
(Vtut5.dat
p491
ttRp492
sS'Register'
p493
g1
(cregister_selection_window
RegisterSelectionSaveList
p494
c__builtin__
list
p495
(lp496
g1
(cregister_selection_window
RegisterSelectionSaveItem
p497
g3
NtRp498
(dp499
S'channel'
p500
g27
(g28
S'QString'
(Vx
ttRp501
sS'circuit'
p502
g354
sbag1
(g497
g3
NtRp503
(dp504
g500
g27
(g28
S'QString'
(Vy
ttRp505
sg502
g354
sbag1
(g497
g3
NtRp506
(dp507
g500
g27
(g28
S'QString'
(Vdf
p508
ttRp509
sg502
g229
sbatRp510
sg36
g488
sS'Dump'
p511
g27
(g28
S'QString'
(V0
ttRp512
sS'Pushed'
p513
I01
ssg45
(lp514
sg16
Nsg57
g1
(g58
g3
NtRp515
(dp516
g61
S'formats/output.format'
p517
sg11
(lp518
g380
asg64
S'Output'
p519
sg66
g67
((lp520
(lp521
S'Name'
p522
aS'LineEdit'
p523
aa(lp524
S'File'
p525
aS'LineEdit'
p526
aa(lp527
S'Dump'
p528
aS'LineEdit'
p529
aa(lp530
S'Register'
p531
aS'RegisterDialog'
p532
aa(lp533
g83
aS'CheckBox'
p534
aatRp535
sg86
S'output'
p536
sg45
(lp537
sg89
(lp538
sg91
(lp539
sbsS'y'
F300
sS'x'
F0
sbasS'connections'
p540
(lp541
g1
(cui_connection
SaveConnection
p542
g3
NtRp543
(dp544
g536
g372
sg16
NsS'input_'
p545
g411
sbag1
(g542
g3
NtRp546
(dp547
g536
g374
sg16
Nsg545
g413
sbag1
(g542
g3
NtRp548
(dp549
g536
g376
sg16
Nsg545
g14
sbag1
(g542
g3
NtRp550
(dp551
g536
g51
sg16
Nsg545
g415
sbag1
(g542
g3
NtRp552
(dp553
g536
g445
sg16
Nsg545
g21
sbag1
(g542
g3
NtRp554
(dp555
g536
g47
sg16
Nsg545
g96
sbag1
(g542
g3
NtRp556
(dp557
g536
g107
sg16
Nsg545
g135
sbag1
(g542
g3
NtRp558
(dp559
g536
g110
sg16
Nsg545
g232
sbag1
(g542
g3
NtRp560
(dp561
g536
g263
sg16
Nsg545
g235
sbag1
(g542
g3
NtRp562
(dp563
g536
g159
sg16
Nsg545
g187
sbag1
(g542
g3
NtRp564
(dp565
g536
g205
sg16
Nsg545
g343
sbag1
(g542
g3
NtRp566
(dp567
g536
g263
sg16
Nsg545
g302
sbag1
(g542
g3
NtRp568
(dp569
g536
g316
sg16
Nsg545
g345
sbag1
(g542
g3
NtRp570
(dp571
g536
g352
sg16
Nsg545
g24
sbag1
(g542
g3
NtRp572
(dp573
g536
g378
sg16
Nsg545
g485
sbasS'machine_parameters'
p574
(dp575
S'Pushed'
p576
I01
sS'dt'
p577
g27
(g28
S'QString'
(V5e-8
p578
ttRp579
sS'PyVAFM src'
p580
g27
(g28
S'QString'
(V/home/keisano1/Project/pyvafm-master/src
p581
ttRp582
ssS'run_selections'
p583
(lp584
g1
(crun_selection_window
RunSelectionSaveItem
p585
g3
NtRp586
(dp587
S'function'
p588
g27
(g28
S'QString'
(VPlace
p589
ttRp590
sg502
g354
sS'edit_text'
p591
g27
(g28
S'QString'
(Vx=0, y=0, z=15
p592
ttRp593
sbag1
(g585
g3
NtRp594
(dp595
g588
g27
(g28
S'QString'
(VWait
p596
ttRp597
sg502
g1
(crun_selection_window
MachineDummy
p598
g3
NtRp599
(dp600
S'save_state'
p601
g599
sg16
g599
sg19
S'machine'
p602
sbsg591
g27
(g28
S'QString'
(V0.5
p603
ttRp604
sbag1
(g585
g3
NtRp605
(dp606
g588
g27
(g28
S'QString'
(VMove
p607
ttRp608
sg502
g354
sg591
g27
(g28
S'QString'
(Vx=0, y=0, z=-11
p609
ttRp610
sbag1
(g585
g3
NtRp611
(dp612
g588
g27
(g28
S'QString'
(VWait
p613
ttRp614
sg502
g599
sg591
g27
(g28
S'QString'
(V1
ttRp615
sbag1
(g585
g3
NtRp616
(dp617
g588
g27
(g28
S'QString'
(VScanArea
p618
ttRp619
sg502
g354
sg591
g27
(g28
S'QString'
(V
ttRp620
sbasS'circuit_index'
p621
I93
sb.